; Function Attrs: cold nounwind optsize uwtable
define internal noundef i32 @png_enc_close(ptr noundef readonly captures(none) %0) #0 {
  %2 = getelementptr inbounds nuw i8, ptr %0, i64 32
  %3 = load ptr, ptr %2, align 8, !tbaa !4
  %4 = getelementptr inbounds nuw i8, ptr %3, i64 64
  tail call void @ff_deflate_end(ptr noundef nonnull %4) #11
  %5 = getelementptr inbounds nuw i8, ptr %3, i64 4344
  tail call void @av_frame_free(ptr noundef nonnull %5) #11
  %6 = getelementptr inbounds nuw i8, ptr %3, i64 4336
  tail call void @av_frame_free(ptr noundef nonnull %6) #11
  %7 = getelementptr inbounds nuw i8, ptr %3, i64 4384
  tail call void @av_freep(ptr noundef nonnull %7) #11
  %8 = getelementptr inbounds nuw i8, ptr %3, i64 4320
  tail call void @av_freep(ptr noundef nonnull %8) #11
  %9 = getelementptr inbounds nuw i8, ptr %3, i64 4328
  store i32 0, ptr %9, align 8, !tbaa !61
  ret i32 0
}